target datalayout = "e-m:e-p270:32:32-p271:32:32-p272:64:64-i64:64-i128:128-f80:128-n8:16:32:64-S128"
target triple = "x86_64-pc-linux-gnu"

%"struct.std::array.34" = type { [441 x i8] }
%class.anon.36 = type { ptr, ptr, ptr, ptr, ptr }

; Function Attrs: mustprogress nounwind uwtable
define linkonce_odr noundef nonnull align 1 dereferenceable(1) ptr @_ZNSt14__array_traitsIbLm441EE6_S_refERA441_Kbm(ptr noundef nonnull align 1 dereferenceable(441) %0, i64 noundef %1) #4 comdat align 2 {
  %3 = alloca ptr, align 8
  %4 = alloca i64, align 8
  store ptr %0, ptr %3, align 8
  store i64 %1, ptr %4, align 8
  %5 = load ptr, ptr %3, align 8
  %6 = load i64, ptr %4, align 8
  %7 = getelementptr inbounds [441 x i8], ptr %5, i64 0, i64 %6
  ret ptr %7
}

; Function Attrs: mustprogress uwtable
define internal void @"_ZN10open_spiel10phantom_go12_GLOBAL__N_110NeighboursIZNS0_19NumSurroundedPointsERKNS0_14PhantomGoBoardEtPSt5arrayIbLm441EEPbS9_E3$_0EEvtRKT_"(i16 noundef zeroext %0, ptr noundef nonnull align 8 dereferenceable(40) %1) #5 {
  %3 = alloca i16, align 2
  %4 = alloca ptr, align 8
  store i16 %0, ptr %3, align 2
  store ptr %1, ptr %4, align 8
  %5 = load ptr, ptr %4, align 8
  %6 = load i16, ptr %3, align 2
  %7 = zext i16 %6 to i32
  %8 = add nsw i32 %7, 21
  %9 = trunc i32 %8 to i16
  call void @"_ZZN10open_spiel10phantom_go19NumSurroundedPointsERKNS0_14PhantomGoBoardEtPSt5arrayIbLm441EEPbS7_ENK3$_0clEt"(ptr noundef nonnull align 8 dereferenceable(40) %5, i16 noundef zeroext %9)
  %10 = load ptr, ptr %4, align 8
  %11 = load i16, ptr %3, align 2
  %12 = zext i16 %11 to i32
  %13 = add nsw i32 %12, 1
  %14 = trunc i32 %13 to i16
  call void @"_ZZN10open_spiel10phantom_go19NumSurroundedPointsERKNS0_14PhantomGoBoardEtPSt5arrayIbLm441EEPbS7_ENK3$_0clEt"(ptr noundef nonnull align 8 dereferenceable(40) %10, i16 noundef zeroext %14)
  %15 = load ptr, ptr %4, align 8
  %16 = load i16, ptr %3, align 2
  %17 = zext i16 %16 to i32
  %18 = sub nsw i32 %17, 1
  %19 = trunc i32 %18 to i16
  call void @"_ZZN10open_spiel10phantom_go19NumSurroundedPointsERKNS0_14PhantomGoBoardEtPSt5arrayIbLm441EEPbS7_ENK3$_0clEt"(ptr noundef nonnull align 8 dereferenceable(40) %15, i16 noundef zeroext %19)
  %20 = load ptr, ptr %4, align 8
  %21 = load i16, ptr %3, align 2
  %22 = zext i16 %21 to i32
  %23 = sub nsw i32 %22, 21
  %24 = trunc i32 %23 to i16
  call void @"_ZZN10open_spiel10phantom_go19NumSurroundedPointsERKNS0_14PhantomGoBoardEtPSt5arrayIbLm441EEPbS7_ENK3$_0clEt"(ptr noundef nonnull align 8 dereferenceable(40) %20, i16 noundef zeroext %24)
  ret void
}

; Function Attrs: mustprogress nounwind uwtable
define linkonce_odr noundef nonnull align 1 dereferenceable(1) ptr @_ZNSt5arrayIbLm441EEixEm(ptr noundef nonnull align 1 dereferenceable(441) %0, i64 noundef %1) #4 comdat align 2 {
  %3 = alloca ptr, align 8
  %4 = alloca i64, align 8
  store ptr %0, ptr %3, align 8
  store i64 %1, ptr %4, align 8
  %5 = load ptr, ptr %3, align 8
  %6 = getelementptr inbounds nuw %"struct.std::array.34", ptr %5, i32 0, i32 0
  %7 = load i64, ptr %4, align 8
  %8 = call noundef nonnull align 1 dereferenceable(1) ptr @_ZNSt14__array_traitsIbLm441EE6_S_refERA441_Kbm(ptr noundef nonnull align 1 dereferenceable(441) %6, i64 noundef %7) #3
  ret ptr %8
}

; Function Attrs: mustprogress uwtable
define noundef i32 @_ZN10open_spiel10phantom_go19NumSurroundedPointsERKNS0_14PhantomGoBoardEtPSt5arrayIbLm441EEPbS7_(ptr noundef nonnull align 8 dereferenceable(8706) %0, i16 noundef zeroext %1, ptr noundef %2, ptr noundef %3, ptr noundef %4) #5 {
  %6 = alloca i32, align 4
  %7 = alloca ptr, align 8
  %8 = alloca i16, align 2
  %9 = alloca ptr, align 8
  %10 = alloca ptr, align 8
  %11 = alloca ptr, align 8
  %12 = alloca i32, align 4
  %13 = alloca %class.anon.36, align 8
  store ptr %0, ptr %7, align 8
  store i16 %1, ptr %8, align 2
  store ptr %2, ptr %9, align 8
  store ptr %3, ptr %10, align 8
  store ptr %4, ptr %11, align 8
  %14 = load ptr, ptr %9, align 8
  %15 = load i16, ptr %8, align 2
  %16 = zext i16 %15 to i64
  %17 = call noundef nonnull align 1 dereferenceable(1) ptr @_ZNSt5arrayIbLm441EEixEm(ptr noundef nonnull align 1 dereferenceable(441) %14, i64 noundef %16) #3
  %18 = load i8, ptr %17, align 1
  %19 = trunc i8 %18 to i1
  br i1 %19, label %20, label %21

20:                                               ; preds = %5
  store i32 0, ptr %6, align 4
  br label %37

21:                                               ; preds = %5
  %22 = load ptr, ptr %9, align 8
  %23 = load i16, ptr %8, align 2
  %24 = zext i16 %23 to i64
  %25 = call noundef nonnull align 1 dereferenceable(1) ptr @_ZNSt5arrayIbLm441EEixEm(ptr noundef nonnull align 1 dereferenceable(441) %22, i64 noundef %24) #3
  store i8 1, ptr %25, align 1
  store i32 1, ptr %12, align 4
  %26 = load i16, ptr %8, align 2
  %27 = getelementptr inbounds nuw %class.anon.36, ptr %13, i32 0, i32 0
  %28 = load ptr, ptr %7, align 8
  store ptr %28, ptr %27, align 8
  %29 = getelementptr inbounds nuw %class.anon.36, ptr %13, i32 0, i32 1
  store ptr %12, ptr %29, align 8
  %30 = getelementptr inbounds nuw %class.anon.36, ptr %13, i32 0, i32 2
  %31 = load ptr, ptr %9, align 8
  store ptr %31, ptr %30, align 8
  %32 = getelementptr inbounds nuw %class.anon.36, ptr %13, i32 0, i32 3
  %33 = load ptr, ptr %10, align 8
  store ptr %33, ptr %32, align 8
  %34 = getelementptr inbounds nuw %class.anon.36, ptr %13, i32 0, i32 4
  %35 = load ptr, ptr %11, align 8
  store ptr %35, ptr %34, align 8
  call void @"_ZN10open_spiel10phantom_go12_GLOBAL__N_110NeighboursIZNS0_19NumSurroundedPointsERKNS0_14PhantomGoBoardEtPSt5arrayIbLm441EEPbS9_E3$_0EEvtRKT_"(i16 noundef zeroext %26, ptr noundef nonnull align 8 dereferenceable(40) %13)
  %36 = load i32, ptr %12, align 4
  store i32 %36, ptr %6, align 4
  br label %37

37:                                               ; preds = %21, %20
  %38 = load i32, ptr %6, align 4
  ret i32 %38
}