; Function Attrs: mustprogress nofree nosync nounwind memory(readwrite, inaccessiblemem: none) uwtable
define noundef i32 @_ZN10open_spiel10phantom_go19NumSurroundedPointsERKNS0_14PhantomGoBoardEtPSt5arrayIbLm441EEPbS7_(ptr noundef nonnull align 8 dereferenceable(8706) %0, i16 noundef zeroext %1, ptr noundef %2, ptr noundef %3, ptr noundef %4) local_unnamed_addr #14 {
  %6 = alloca i32, align 4
  %7 = alloca %class.anon.36, align 8
  %8 = zext i16 %1 to i64
  %9 = getelementptr inbounds [441 x i8], ptr %2, i64 0, i64 %8
  %10 = load i8, ptr %9, align 1
  %11 = trunc i8 %10 to i1
  br i1 %11, label %22, label %12

12:                                               ; preds = %5
  store i8 1, ptr %9, align 1
  store i32 1, ptr %6, align 4
  store ptr %0, ptr %7, align 8
  %13 = getelementptr inbounds nuw i8, ptr %7, i64 8
  store ptr %6, ptr %13, align 8
  %14 = getelementptr inbounds nuw i8, ptr %7, i64 16
  store ptr %2, ptr %14, align 8
  %15 = getelementptr inbounds nuw i8, ptr %7, i64 24
  store ptr %3, ptr %15, align 8
  %16 = getelementptr inbounds nuw i8, ptr %7, i64 32
  store ptr %4, ptr %16, align 8
  %17 = add i16 %1, 21
  call fastcc void @"_ZZN10open_spiel10phantom_go19NumSurroundedPointsERKNS0_14PhantomGoBoardEtPSt5arrayIbLm441EEPbS7_ENK3$_0clEt"(ptr noundef nonnull align 8 dereferenceable(40) %7, i16 noundef zeroext %17)
  %18 = add i16 %1, 1
  call fastcc void @"_ZZN10open_spiel10phantom_go19NumSurroundedPointsERKNS0_14PhantomGoBoardEtPSt5arrayIbLm441EEPbS7_ENK3$_0clEt"(ptr noundef nonnull align 8 dereferenceable(40) %7, i16 noundef zeroext %18)
  %19 = add i16 %1, -1
  call fastcc void @"_ZZN10open_spiel10phantom_go19NumSurroundedPointsERKNS0_14PhantomGoBoardEtPSt5arrayIbLm441EEPbS7_ENK3$_0clEt"(ptr noundef nonnull align 8 dereferenceable(40) %7, i16 noundef zeroext %19)
  %20 = add i16 %1, -21
  call fastcc void @"_ZZN10open_spiel10phantom_go19NumSurroundedPointsERKNS0_14PhantomGoBoardEtPSt5arrayIbLm441EEPbS7_ENK3$_0clEt"(ptr noundef nonnull align 8 dereferenceable(40) %7, i16 noundef zeroext %20)
  %21 = load i32, ptr %6, align 4
  br label %22

22:                                               ; preds = %5, %12
  %.0 = phi i32 [ %21, %12 ], [ 0, %5 ]
  ret i32 %.0
}